target datalayout = "e-m:e-p270:32:32-p271:32:32-p272:64:64-i64:64-i128:128-f80:128-n8:16:32:64-S128"
target triple = "x86_64-pc-linux-gnu"

%struct._bt_uuid_t = type { ptr, ptr }

@bluetooth_uuids = global ptr null, align 8

; Function Attrs: nounwind uwtable
define internal void @bt_uuids_free_cb(ptr noundef %0) #1 {
  %2 = alloca ptr, align 8
  %3 = alloca ptr, align 8
  %4 = alloca ptr, align 8
  store ptr %0, ptr %2, align 8
  %5 = load ptr, ptr %2, align 8
  store ptr %5, ptr %3, align 8
  %6 = load ptr, ptr @bluetooth_uuids, align 8
  %7 = load ptr, ptr %3, align 8
  %8 = getelementptr inbounds %struct._bt_uuid_t, ptr %7, i32 0, i32 0
  %9 = load ptr, ptr %8, align 8
  %10 = call ptr @wmem_tree_lookup_string(ptr noundef %6, ptr noundef %9, i32 noundef 0)
  store ptr %10, ptr %4, align 8
  %11 = load ptr, ptr %4, align 8
  %12 = icmp ne ptr %11, null
  br i1 %12, label %13, label %26

13:                                               ; preds = %1
  %14 = load ptr, ptr %4, align 8
  %15 = load ptr, ptr %3, align 8
  %16 = getelementptr inbounds %struct._bt_uuid_t, ptr %15, i32 0, i32 1
  %17 = load ptr, ptr %16, align 8
  %18 = call i32 @strcmp(ptr noundef %14, ptr noundef %17) #7
  %19 = icmp ne i32 %18, 0
  br i1 %19, label %26, label %20

20:                                               ; preds = %13
  %21 = load ptr, ptr @bluetooth_uuids, align 8
  %22 = load ptr, ptr %3, align 8
  %23 = getelementptr inbounds %struct._bt_uuid_t, ptr %22, i32 0, i32 0
  %24 = load ptr, ptr %23, align 8
  %25 = call ptr @wmem_tree_remove_string(ptr noundef %21, ptr noundef %24, i32 noundef 0)
  br label %26

26:                                               ; preds = %20, %13, %1
  %27 = load ptr, ptr %3, align 8
  %28 = getelementptr inbounds %struct._bt_uuid_t, ptr %27, i32 0, i32 0
  %29 = load ptr, ptr %28, align 8
  call void @g_free(ptr noundef %29)
  %30 = load ptr, ptr %3, align 8
  %31 = getelementptr inbounds %struct._bt_uuid_t, ptr %30, i32 0, i32 1
  %32 = load ptr, ptr %31, align 8
  call void @g_free(ptr noundef %32)
  ret void
}