; Function Attrs: nounwind uwtable
define internal void @bt_uuids_free_cb(ptr noundef readonly captures(none) %0) #1 {
  %2 = load ptr, ptr @bluetooth_uuids, align 8
  %3 = load ptr, ptr %0, align 8
  %4 = tail call ptr @wmem_tree_lookup_string(ptr noundef %2, ptr noundef %3, i32 noundef 0) #9
  %.not = icmp eq ptr %4, null
  br i1 %.not, label %13, label %5

5:                                                ; preds = %1
  %6 = getelementptr inbounds nuw i8, ptr %0, i64 8
  %7 = load ptr, ptr %6, align 8
  %8 = tail call i32 @strcmp(ptr noundef nonnull dereferenceable(1) %4, ptr noundef nonnull dereferenceable(1) %7) #10
  %.not8 = icmp eq i32 %8, 0
  br i1 %.not8, label %9, label %13

9:                                                ; preds = %5
  %10 = load ptr, ptr @bluetooth_uuids, align 8
  %11 = load ptr, ptr %0, align 8
  %12 = tail call ptr @wmem_tree_remove_string(ptr noundef %10, ptr noundef %11, i32 noundef 0) #9
  br label %13

13:                                               ; preds = %9, %5, %1
  %14 = load ptr, ptr %0, align 8
  tail call void @g_free(ptr noundef %14) #9
  %15 = getelementptr inbounds nuw i8, ptr %0, i64 8
  %16 = load ptr, ptr %15, align 8
  tail call void @g_free(ptr noundef %16) #9
  ret void
}